target datalayout = "e-m:e-p270:32:32-p271:32:32-p272:64:64-i64:64-i128:128-f80:128-n8:16:32:64-S128"
target triple = "x86_64-pc-linux-gnu"

%"struct.Yosys::RTLIL::IdString" = type { i32 }
%"class.std::vector" = type { %"struct.std::_Vector_base" }
%"struct.std::_Vector_base" = type { %"struct.std::_Vector_base<int, std::allocator<int>>::_Vector_impl" }
%"struct.std::_Vector_base<int, std::allocator<int>>::_Vector_impl" = type { %"struct.std::_Vector_base<int, std::allocator<int>>::_Vector_impl_data" }
%"struct.std::_Vector_base<int, std::allocator<int>>::_Vector_impl_data" = type { ptr, ptr, ptr }

@_ZN5Yosys5RTLIL2ID5WIDTHE = external global %"struct.Yosys::RTLIL::IdString", align 4
@_ZN5Yosys5RTLIL2ID7A_WIDTHE = external global %"struct.Yosys::RTLIL::IdString", align 4
@_ZN5Yosys5RTLIL2ID7B_WIDTHE = external global %"struct.Yosys::RTLIL::IdString", align 4
@_ZN5Yosys5RTLIL2ID7S_WIDTHE = external global %"struct.Yosys::RTLIL::IdString", align 4
@_ZN5Yosys5RTLIL2ID7Y_WIDTHE = external global %"struct.Yosys::RTLIL::IdString", align 4
@_ZN5Yosys5RTLIL8IdString24global_refcount_storage_E = external global %"class.std::vector", align 8

; Function Attrs: mustprogress nounwind uwtable
define linkonce_odr noundef nonnull align 4 dereferenceable(4) ptr @_ZNSt6vectorIiSaIiEEixEm(ptr noundef nonnull align 8 dereferenceable(24) %0, i64 noundef %1) #7 comdat align 2 {
  %3 = alloca ptr, align 8
  %4 = alloca i64, align 8
  store ptr %0, ptr %3, align 8, !tbaa !68
  store i64 %1, ptr %4, align 8, !tbaa !70
  %5 = load ptr, ptr %3, align 8
  %6 = getelementptr inbounds nuw %"struct.std::_Vector_base", ptr %5, i32 0, i32 0
  %7 = getelementptr inbounds nuw %"struct.std::_Vector_base<int, std::allocator<int>>::_Vector_impl_data", ptr %6, i32 0, i32 0
  %8 = load ptr, ptr %7, align 8, !tbaa !71
  %9 = load i64, ptr %4, align 8, !tbaa !70
  %10 = getelementptr inbounds nuw i32, ptr %8, i64 %9
  ret ptr %10
}

; Function Attrs: inlinehint mustprogress nounwind uwtable
define linkonce_odr noundef i32 @_ZN5Yosys5RTLIL8IdString13get_referenceEi(i32 noundef %0) #8 comdat align 2 {
  %2 = alloca i32, align 4
  store i32 %0, ptr %2, align 4, !tbaa !13
  %3 = load i32, ptr %2, align 4, !tbaa !13
  %4 = icmp ne i32 %3, 0
  br i1 %4, label %5, label %11

5:                                                ; preds = %1
  %6 = load i32, ptr %2, align 4, !tbaa !13
  %7 = sext i32 %6 to i64
  %8 = call noundef nonnull align 4 dereferenceable(4) ptr @_ZNSt6vectorIiSaIiEEixEm(ptr noundef nonnull align 8 dereferenceable(24) @_ZN5Yosys5RTLIL8IdString24global_refcount_storage_E, i64 noundef %7) #3
  %9 = load i32, ptr %8, align 4, !tbaa !13
  %10 = add nsw i32 %9, 1
  store i32 %10, ptr %8, align 4, !tbaa !13
  br label %11

11:                                               ; preds = %5, %1
  %12 = load i32, ptr %2, align 4, !tbaa !13
  ret i32 %12
}

; Function Attrs: inlinehint mustprogress uwtable
define linkonce_odr void @_ZN5Yosys5RTLIL8IdStringC2ERKS1_(ptr noundef nonnull align 4 dereferenceable(4) %0, ptr noundef nonnull align 4 dereferenceable(4) %1) unnamed_addr #6 comdat align 2 {
  %3 = alloca ptr, align 8
  %4 = alloca ptr, align 8
  store ptr %0, ptr %3, align 8, !tbaa !21
  store ptr %1, ptr %4, align 8, !tbaa !21
  %5 = load ptr, ptr %3, align 8
  %6 = getelementptr inbounds nuw %"struct.Yosys::RTLIL::IdString", ptr %5, i32 0, i32 0
  %7 = load ptr, ptr %4, align 8, !tbaa !21
  %8 = getelementptr inbounds nuw %"struct.Yosys::RTLIL::IdString", ptr %7, i32 0, i32 0
  %9 = load i32, ptr %8, align 4, !tbaa !51
  %10 = call noundef i32 @_ZN5Yosys5RTLIL8IdString13get_referenceEi(i32 noundef %9)
  store i32 %10, ptr %6, align 4, !tbaa !51
  ret void
}

; Function Attrs: mustprogress uwtable
define noundef i32 @_Z14port_width_sumPN5Yosys5RTLIL4CellE(ptr noundef %0) #4 personality ptr @__gxx_personality_v0 {
  %2 = alloca i32, align 4
  %3 = alloca ptr, align 8
  %4 = alloca i32, align 4
  %5 = alloca [5 x %"struct.Yosys::RTLIL::IdString"], align 16
  %6 = alloca ptr, align 8
  %7 = alloca ptr, align 8
  %8 = alloca i32, align 4
  %9 = alloca ptr, align 8
  %10 = alloca ptr, align 8
  %11 = alloca ptr, align 8
  %12 = alloca %"struct.Yosys::RTLIL::IdString", align 4
  store ptr %0, ptr %3, align 8, !tbaa !17
  call void @llvm.lifetime.start.p0(i64 4, ptr %4) #3
  store i32 0, ptr %4, align 4, !tbaa !13
  call void @llvm.lifetime.start.p0(i64 20, ptr %5) #3
  store ptr %5, ptr %6, align 8
  invoke void @_ZN5Yosys5RTLIL8IdStringC2ERKS1_(ptr noundef nonnull align 4 dereferenceable(4) %5, ptr noundef nonnull align 4 dereferenceable(4) @_ZN5Yosys5RTLIL2ID5WIDTHE)
          to label %13 unwind label %32

13:                                               ; preds = %1
  %14 = getelementptr inbounds %"struct.Yosys::RTLIL::IdString", ptr %5, i64 1
  store ptr %14, ptr %6, align 8
  invoke void @_ZN5Yosys5RTLIL8IdStringC2ERKS1_(ptr noundef nonnull align 4 dereferenceable(4) %14, ptr noundef nonnull align 4 dereferenceable(4) @_ZN5Yosys5RTLIL2ID7A_WIDTHE)
          to label %15 unwind label %32

15:                                               ; preds = %13
  %16 = getelementptr inbounds %"struct.Yosys::RTLIL::IdString", ptr %5, i64 2
  store ptr %16, ptr %6, align 8
  invoke void @_ZN5Yosys5RTLIL8IdStringC2ERKS1_(ptr noundef nonnull align 4 dereferenceable(4) %16, ptr noundef nonnull align 4 dereferenceable(4) @_ZN5Yosys5RTLIL2ID7B_WIDTHE)
          to label %17 unwind label %32

17:                                               ; preds = %15
  %18 = getelementptr inbounds %"struct.Yosys::RTLIL::IdString", ptr %5, i64 3
  store ptr %18, ptr %6, align 8
  invoke void @_ZN5Yosys5RTLIL8IdStringC2ERKS1_(ptr noundef nonnull align 4 dereferenceable(4) %18, ptr noundef nonnull align 4 dereferenceable(4) @_ZN5Yosys5RTLIL2ID7S_WIDTHE)
          to label %19 unwind label %32

19:                                               ; preds = %17
  %20 = getelementptr inbounds %"struct.Yosys::RTLIL::IdString", ptr %5, i64 4
  store ptr %20, ptr %6, align 8
  invoke void @_ZN5Yosys5RTLIL8IdStringC2ERKS1_(ptr noundef nonnull align 4 dereferenceable(4) %20, ptr noundef nonnull align 4 dereferenceable(4) @_ZN5Yosys5RTLIL2ID7Y_WIDTHE)
          to label %21 unwind label %32

21:                                               ; preds = %19
  call void @llvm.lifetime.start.p0(i64 8, ptr %9) #3
  store ptr %5, ptr %9, align 8, !tbaa !21
  call void @llvm.lifetime.start.p0(i64 8, ptr %10) #3
  %22 = load ptr, ptr %9, align 8, !tbaa !21
  %23 = getelementptr inbounds [5 x %"struct.Yosys::RTLIL::IdString"], ptr %22, i64 0, i64 0
  store ptr %23, ptr %10, align 8, !tbaa !21
  call void @llvm.lifetime.start.p0(i64 8, ptr %11) #3
  %24 = load ptr, ptr %9, align 8, !tbaa !21
  %25 = getelementptr inbounds [5 x %"struct.Yosys::RTLIL::IdString"], ptr %24, i64 0, i64 0
  %26 = getelementptr inbounds %"struct.Yosys::RTLIL::IdString", ptr %25, i64 5
  store ptr %26, ptr %11, align 8, !tbaa !21
  br label %27

27:                                               ; preds = %66, %21
  %28 = load ptr, ptr %10, align 8, !tbaa !21
  %29 = load ptr, ptr %11, align 8, !tbaa !21
  %30 = icmp ne ptr %28, %29
  br i1 %30, label %43, label %31

31:                                               ; preds = %27
  call void @llvm.lifetime.end.p0(i64 8, ptr %11) #3
  call void @llvm.lifetime.end.p0(i64 8, ptr %10) #3
  call void @llvm.lifetime.end.p0(i64 8, ptr %9) #3
  br label %72

32:                                               ; preds = %19, %17, %15, %13, %1
  %33 = landingpad { ptr, i32 }
          cleanup
  %34 = extractvalue { ptr, i32 } %33, 0
  store ptr %34, ptr %7, align 8
  %35 = extractvalue { ptr, i32 } %33, 1
  store i32 %35, ptr %8, align 4
  %36 = load ptr, ptr %6, align 8
  %37 = icmp eq ptr %5, %36
  br i1 %37, label %42, label %38

38:                                               ; preds = %38, %32
  %39 = phi ptr [ %36, %32 ], [ %40, %38 ]
  %40 = getelementptr inbounds %"struct.Yosys::RTLIL::IdString", ptr %39, i64 -1
  call void @_ZN5Yosys5RTLIL8IdStringD2Ev(ptr noundef nonnull align 4 dereferenceable(4) %40) #3
  %41 = icmp eq ptr %40, %5
  br i1 %41, label %42, label %38

42:                                               ; preds = %38, %32
  br label %87

43:                                               ; preds = %27
  call void @llvm.lifetime.start.p0(i64 4, ptr %12) #3
  %44 = load ptr, ptr %10, align 8, !tbaa !21
  invoke void @_ZN5Yosys5RTLIL8IdStringC2ERKS1_(ptr noundef nonnull align 4 dereferenceable(4) %12, ptr noundef nonnull align 4 dereferenceable(4) %44)
          to label %45 unwind label %57

45:                                               ; preds = %43
  %46 = load ptr, ptr %3, align 8, !tbaa !17
  %47 = invoke noundef zeroext i1 @_ZNK5Yosys5RTLIL4Cell8hasParamERKNS0_8IdStringE(ptr noundef nonnull align 8 dereferenceable(192) %46, ptr noundef nonnull align 4 dereferenceable(4) %12)
          to label %48 unwind label %61

48:                                               ; preds = %45
  br i1 %47, label %49, label %65

49:                                               ; preds = %48
  %50 = load ptr, ptr %3, align 8, !tbaa !17
  %51 = invoke noundef nonnull align 8 dereferenceable(40) ptr @_ZNK5Yosys5RTLIL4Cell8getParamERKNS0_8IdStringE(ptr noundef nonnull align 8 dereferenceable(192) %50, ptr noundef nonnull align 4 dereferenceable(4) %12)
          to label %52 unwind label %61

52:                                               ; preds = %49
  %53 = invoke noundef i32 @_ZNK5Yosys5RTLIL5Const6as_intEb(ptr noundef nonnull align 8 dereferenceable(40) %51, i1 noundef zeroext false)
          to label %54 unwind label %61

54:                                               ; preds = %52
  %55 = load i32, ptr %4, align 4, !tbaa !13
  %56 = add i32 %55, %53
  store i32 %56, ptr %4, align 4, !tbaa !13
  br label %65

57:                                               ; preds = %43
  %58 = landingpad { ptr, i32 }
          cleanup
  %59 = extractvalue { ptr, i32 } %58, 0
  store ptr %59, ptr %7, align 8
  %60 = extractvalue { ptr, i32 } %58, 1
  store i32 %60, ptr %8, align 4
  br label %69

61:                                               ; preds = %52, %49, %45
  %62 = landingpad { ptr, i32 }
          cleanup
  %63 = extractvalue { ptr, i32 } %62, 0
  store ptr %63, ptr %7, align 8
  %64 = extractvalue { ptr, i32 } %62, 1
  store i32 %64, ptr %8, align 4
  call void @_ZN5Yosys5RTLIL8IdStringD2Ev(ptr noundef nonnull align 4 dereferenceable(4) %12) #3
  br label %69

65:                                               ; preds = %54, %48
  call void @_ZN5Yosys5RTLIL8IdStringD2Ev(ptr noundef nonnull align 4 dereferenceable(4) %12) #3
  call void @llvm.lifetime.end.p0(i64 4, ptr %12) #3
  br label %66

66:                                               ; preds = %65
  %67 = load ptr, ptr %10, align 8, !tbaa !21
  %68 = getelementptr inbounds nuw %"struct.Yosys::RTLIL::IdString", ptr %67, i32 1
  store ptr %68, ptr %10, align 8, !tbaa !21
  br label %27

69:                                               ; preds = %61, %57
  call void @llvm.lifetime.end.p0(i64 4, ptr %12) #3
  call void @llvm.lifetime.end.p0(i64 8, ptr %11) #3
  call void @llvm.lifetime.end.p0(i64 8, ptr %10) #3
  call void @llvm.lifetime.end.p0(i64 8, ptr %9) #3
  %70 = getelementptr inbounds [5 x %"struct.Yosys::RTLIL::IdString"], ptr %5, i32 0, i32 0
  %71 = getelementptr inbounds %"struct.Yosys::RTLIL::IdString", ptr %70, i64 5
  br label %82

72:                                               ; preds = %31
  %73 = load i32, ptr %4, align 4, !tbaa !13
  store i32 %73, ptr %2, align 4
  %74 = getelementptr inbounds [5 x %"struct.Yosys::RTLIL::IdString"], ptr %5, i32 0, i32 0
  %75 = getelementptr inbounds %"struct.Yosys::RTLIL::IdString", ptr %74, i64 5
  br label %76

76:                                               ; preds = %76, %72
  %77 = phi ptr [ %75, %72 ], [ %78, %76 ]
  %78 = getelementptr inbounds %"struct.Yosys::RTLIL::IdString", ptr %77, i64 -1
  call void @_ZN5Yosys5RTLIL8IdStringD2Ev(ptr noundef nonnull align 4 dereferenceable(4) %78) #3
  %79 = icmp eq ptr %78, %74
  br i1 %79, label %80, label %76

80:                                               ; preds = %76
  call void @llvm.lifetime.end.p0(i64 20, ptr %5) #3
  call void @llvm.lifetime.end.p0(i64 4, ptr %4) #3
  %81 = load i32, ptr %2, align 4
  ret i32 %81

82:                                               ; preds = %82, %69
  %83 = phi ptr [ %71, %69 ], [ %84, %82 ]
  %84 = getelementptr inbounds %"struct.Yosys::RTLIL::IdString", ptr %83, i64 -1
  call void @_ZN5Yosys5RTLIL8IdStringD2Ev(ptr noundef nonnull align 4 dereferenceable(4) %84) #3
  %85 = icmp eq ptr %84, %70
  br i1 %85, label %86, label %82

86:                                               ; preds = %82
  br label %87

87:                                               ; preds = %86, %42
  call void @llvm.lifetime.end.p0(i64 20, ptr %5) #3
  call void @llvm.lifetime.end.p0(i64 4, ptr %4) #3
  br label %88

88:                                               ; preds = %87
  %89 = load ptr, ptr %7, align 8
  %90 = load i32, ptr %8, align 4
  %91 = insertvalue { ptr, i32 } poison, ptr %89, 0
  %92 = insertvalue { ptr, i32 } %91, i32 %90, 1
  resume { ptr, i32 } %92
}