; Function Attrs: mustprogress uwtable
define noundef i32 @_Z14port_width_sumPN5Yosys5RTLIL4CellE(ptr noundef %0) local_unnamed_addr #3 personality ptr @__gxx_personality_v0 {
  %2 = alloca [5 x %"struct.Yosys::RTLIL::IdString"], align 16
  %3 = alloca %"struct.Yosys::RTLIL::IdString", align 4
  call void @llvm.lifetime.start.p0(i64 20, ptr nonnull %2) #23
  %4 = load i32, ptr @_ZN5Yosys5RTLIL2ID5WIDTHE, align 4, !tbaa !11
  %.not.i.i = icmp eq i32 %4, 0
  br i1 %.not.i.i, label %11, label %5

5:                                                ; preds = %1
  %6 = sext i32 %4 to i64
  %7 = load ptr, ptr @_ZN5Yosys5RTLIL8IdString24global_refcount_storage_E, align 8, !tbaa !14
  %8 = getelementptr inbounds nuw i32, ptr %7, i64 %6
  %9 = load i32, ptr %8, align 4, !tbaa !16
  %10 = add nsw i32 %9, 1
  store i32 %10, ptr %8, align 4, !tbaa !16
  br label %11

11:                                               ; preds = %5, %1
  store i32 %4, ptr %2, align 16, !tbaa !11
  %12 = getelementptr inbounds nuw i8, ptr %2, i64 4
  %13 = load i32, ptr @_ZN5Yosys5RTLIL2ID7A_WIDTHE, align 4, !tbaa !11
  %.not.i.i24 = icmp eq i32 %13, 0
  br i1 %.not.i.i24, label %20, label %14

14:                                               ; preds = %11
  %15 = sext i32 %13 to i64
  %16 = load ptr, ptr @_ZN5Yosys5RTLIL8IdString24global_refcount_storage_E, align 8, !tbaa !14
  %17 = getelementptr inbounds nuw i32, ptr %16, i64 %15
  %18 = load i32, ptr %17, align 4, !tbaa !16
  %19 = add nsw i32 %18, 1
  store i32 %19, ptr %17, align 4, !tbaa !16
  br label %20

20:                                               ; preds = %14, %11
  store i32 %13, ptr %12, align 4, !tbaa !11
  %21 = getelementptr inbounds nuw i8, ptr %2, i64 8
  %22 = load i32, ptr @_ZN5Yosys5RTLIL2ID7B_WIDTHE, align 4, !tbaa !11
  %.not.i.i26 = icmp eq i32 %22, 0
  br i1 %.not.i.i26, label %29, label %23

23:                                               ; preds = %20
  %24 = sext i32 %22 to i64
  %25 = load ptr, ptr @_ZN5Yosys5RTLIL8IdString24global_refcount_storage_E, align 8, !tbaa !14
  %26 = getelementptr inbounds nuw i32, ptr %25, i64 %24
  %27 = load i32, ptr %26, align 4, !tbaa !16
  %28 = add nsw i32 %27, 1
  store i32 %28, ptr %26, align 4, !tbaa !16
  br label %29

29:                                               ; preds = %23, %20
  store i32 %22, ptr %21, align 8, !tbaa !11
  %30 = getelementptr inbounds nuw i8, ptr %2, i64 12
  %31 = load i32, ptr @_ZN5Yosys5RTLIL2ID7S_WIDTHE, align 4, !tbaa !11
  %.not.i.i28 = icmp eq i32 %31, 0
  br i1 %.not.i.i28, label %38, label %32

32:                                               ; preds = %29
  %33 = sext i32 %31 to i64
  %34 = load ptr, ptr @_ZN5Yosys5RTLIL8IdString24global_refcount_storage_E, align 8, !tbaa !14
  %35 = getelementptr inbounds nuw i32, ptr %34, i64 %33
  %36 = load i32, ptr %35, align 4, !tbaa !16
  %37 = add nsw i32 %36, 1
  store i32 %37, ptr %35, align 4, !tbaa !16
  br label %38

38:                                               ; preds = %32, %29
  store i32 %31, ptr %30, align 4, !tbaa !11
  %39 = getelementptr inbounds nuw i8, ptr %2, i64 16
  %40 = load i32, ptr @_ZN5Yosys5RTLIL2ID7Y_WIDTHE, align 4, !tbaa !11
  %.not.i.i30 = icmp eq i32 %40, 0
  br i1 %.not.i.i30, label %47, label %41

41:                                               ; preds = %38
  %42 = sext i32 %40 to i64
  %43 = load ptr, ptr @_ZN5Yosys5RTLIL8IdString24global_refcount_storage_E, align 8, !tbaa !14
  %44 = getelementptr inbounds nuw i32, ptr %43, i64 %42
  %45 = load i32, ptr %44, align 4, !tbaa !16
  %46 = add nsw i32 %45, 1
  store i32 %46, ptr %44, align 4, !tbaa !16
  br label %47

47:                                               ; preds = %41, %38
  store i32 %40, ptr %39, align 16, !tbaa !11
  %48 = getelementptr inbounds nuw i8, ptr %2, i64 20
  br label %49

49:                                               ; preds = %47, %_ZN5Yosys5RTLIL8IdStringD2Ev.exit
  %.039 = phi i32 [ 0, %47 ], [ %.1, %_ZN5Yosys5RTLIL8IdStringD2Ev.exit ]
  %.013.idx38 = phi i64 [ 0, %47 ], [ %.013.add, %_ZN5Yosys5RTLIL8IdStringD2Ev.exit ]
  %.013.ptr = getelementptr inbounds nuw i8, ptr %2, i64 %.013.idx38
  call void @llvm.lifetime.start.p0(i64 4, ptr nonnull %3) #23
  %50 = load i32, ptr %.013.ptr, align 4, !tbaa !11
  %.not.i.i32 = icmp eq i32 %50, 0
  br i1 %.not.i.i32, label %57, label %51

51:                                               ; preds = %49
  %52 = sext i32 %50 to i64
  %53 = load ptr, ptr @_ZN5Yosys5RTLIL8IdString24global_refcount_storage_E, align 8, !tbaa !14
  %54 = getelementptr inbounds nuw i32, ptr %53, i64 %52
  %55 = load i32, ptr %54, align 4, !tbaa !16
  %56 = add nsw i32 %55, 1
  store i32 %56, ptr %54, align 4, !tbaa !16
  br label %57

57:                                               ; preds = %51, %49
  store i32 %50, ptr %3, align 4, !tbaa !11
  %58 = invoke noundef zeroext i1 @_ZNK5Yosys5RTLIL4Cell8hasParamERKNS0_8IdStringE(ptr noundef nonnull align 8 dereferenceable(192) %0, ptr noundef nonnull align 4 dereferenceable(4) %3)
          to label %59 unwind label %66

59:                                               ; preds = %57
  br i1 %58, label %60, label %68

60:                                               ; preds = %59
  %61 = invoke noundef nonnull align 8 dereferenceable(40) ptr @_ZNK5Yosys5RTLIL4Cell8getParamERKNS0_8IdStringE(ptr noundef nonnull align 8 dereferenceable(192) %0, ptr noundef nonnull align 4 dereferenceable(4) %3)
          to label %62 unwind label %66

62:                                               ; preds = %60
  %63 = invoke noundef i32 @_ZNK5Yosys5RTLIL5Const6as_intEb(ptr noundef nonnull align 8 dereferenceable(40) %61, i1 noundef zeroext false)
          to label %64 unwind label %66

64:                                               ; preds = %62
  %65 = add i32 %63, %.039
  br label %68

66:                                               ; preds = %62, %60, %57
  %67 = landingpad { ptr, i32 }
          cleanup
  call void @_ZN5Yosys5RTLIL8IdStringD2Ev(ptr noundef nonnull align 4 dereferenceable(4) %3) #23
  call void @llvm.lifetime.end.p0(i64 4, ptr nonnull %3) #23
  br label %103

68:                                               ; preds = %64, %59
  %.1 = phi i32 [ %65, %64 ], [ %.039, %59 ]
  %69 = load i32, ptr %3, align 4, !tbaa !11
  %70 = load i8, ptr @_ZN5Yosys5RTLIL8IdString17destruct_guard_okE, align 1, !tbaa !17, !range !19, !noundef !20
  %71 = trunc nuw i8 %70 to i1
  %72 = icmp ne i32 %69, 0
  %or.cond.i.i = and i1 %72, %71
  br i1 %or.cond.i.i, label %73, label %_ZN5Yosys5RTLIL8IdStringD2Ev.exit

73:                                               ; preds = %68
  %74 = sext i32 %69 to i64
  %75 = load ptr, ptr @_ZN5Yosys5RTLIL8IdString24global_refcount_storage_E, align 8, !tbaa !14
  %76 = getelementptr inbounds nuw i32, ptr %75, i64 %74
  %77 = load i32, ptr %76, align 4, !tbaa !16
  %78 = add nsw i32 %77, -1
  store i32 %78, ptr %76, align 4, !tbaa !16
  %79 = icmp sgt i32 %77, 1
  br i1 %79, label %_ZN5Yosys5RTLIL8IdStringD2Ev.exit, label %80

80:                                               ; preds = %73
  invoke void @_ZN5Yosys5RTLIL8IdString14free_referenceEi(i32 noundef %69)
          to label %_ZN5Yosys5RTLIL8IdStringD2Ev.exit unwind label %81

81:                                               ; preds = %80
  %82 = landingpad { ptr, i32 }
          catch ptr null
  %83 = extractvalue { ptr, i32 } %82, 0
  call void @__clang_call_terminate(ptr %83) #24
  unreachable

_ZN5Yosys5RTLIL8IdStringD2Ev.exit:                ; preds = %68, %73, %80
  call void @llvm.lifetime.end.p0(i64 4, ptr nonnull %3) #23
  %.013.add = add nuw nsw i64 %.013.idx38, 4
  %.not = icmp eq i64 %.013.add, 20
  br i1 %.not, label %.preheader, label %49

.preheader:                                       ; preds = %_ZN5Yosys5RTLIL8IdStringD2Ev.exit, %_ZN5Yosys5RTLIL8IdStringD2Ev.exit35
  %84 = phi ptr [ %85, %_ZN5Yosys5RTLIL8IdStringD2Ev.exit35 ], [ %48, %_ZN5Yosys5RTLIL8IdStringD2Ev.exit ]
  %85 = getelementptr inbounds i8, ptr %84, i64 -4
  %86 = load i32, ptr %85, align 4, !tbaa !11
  %87 = load i8, ptr @_ZN5Yosys5RTLIL8IdString17destruct_guard_okE, align 1, !tbaa !17, !range !19, !noundef !20
  %88 = trunc nuw i8 %87 to i1
  %89 = icmp ne i32 %86, 0
  %or.cond.i.i34 = and i1 %89, %88
  br i1 %or.cond.i.i34, label %90, label %_ZN5Yosys5RTLIL8IdStringD2Ev.exit35

90:                                               ; preds = %.preheader
  %91 = sext i32 %86 to i64
  %92 = load ptr, ptr @_ZN5Yosys5RTLIL8IdString24global_refcount_storage_E, align 8, !tbaa !14
  %93 = getelementptr inbounds nuw i32, ptr %92, i64 %91
  %94 = load i32, ptr %93, align 4, !tbaa !16
  %95 = add nsw i32 %94, -1
  store i32 %95, ptr %93, align 4, !tbaa !16
  %96 = icmp sgt i32 %94, 1
  br i1 %96, label %_ZN5Yosys5RTLIL8IdStringD2Ev.exit35, label %97

97:                                               ; preds = %90
  invoke void @_ZN5Yosys5RTLIL8IdString14free_referenceEi(i32 noundef %86)
          to label %_ZN5Yosys5RTLIL8IdStringD2Ev.exit35 unwind label %98

98:                                               ; preds = %97
  %99 = landingpad { ptr, i32 }
          catch ptr null
  %100 = extractvalue { ptr, i32 } %99, 0
  call void @__clang_call_terminate(ptr %100) #24
  unreachable

_ZN5Yosys5RTLIL8IdStringD2Ev.exit35:              ; preds = %.preheader, %90, %97
  %101 = icmp eq ptr %85, %2
  br i1 %101, label %102, label %.preheader

102:                                              ; preds = %_ZN5Yosys5RTLIL8IdStringD2Ev.exit35
  call void @llvm.lifetime.end.p0(i64 20, ptr nonnull %2) #23
  ret i32 %.1

103:                                              ; preds = %103, %66
  %104 = phi ptr [ %48, %66 ], [ %105, %103 ]
  %105 = getelementptr inbounds i8, ptr %104, i64 -4
  call void @_ZN5Yosys5RTLIL8IdStringD2Ev(ptr noundef nonnull align 4 dereferenceable(4) %105) #23
  %106 = icmp eq ptr %105, %2
  br i1 %106, label %107, label %103

107:                                              ; preds = %103
  call void @llvm.lifetime.end.p0(i64 20, ptr nonnull %2) #23
  resume { ptr, i32 } %67
}